; Function Attrs: noinline nounwind uwtable
define internal fastcc ptr @qsort_tuple_med3(ptr noundef %0, ptr noundef %1, ptr noundef %2, ptr noundef readonly captures(none) %3, ptr noundef %4) unnamed_addr #8 {
  %6 = tail call i32 %3(ptr noundef %0, ptr noundef %1, ptr noundef %4) #13
  %7 = icmp slt i32 %6, 0
  %8 = tail call i32 %3(ptr noundef %1, ptr noundef %2, ptr noundef %4) #13
  br i1 %7, label %9, label %15

9:                                                ; preds = %5
  %10 = icmp slt i32 %8, 0
  br i1 %10, label %21, label %11

11:                                               ; preds = %9
  %12 = tail call i32 %3(ptr noundef %0, ptr noundef %2, ptr noundef %4) #13
  %13 = icmp slt i32 %12, 0
  %14 = select i1 %13, ptr %2, ptr %0
  br label %21

15:                                               ; preds = %5
  %16 = icmp sgt i32 %8, 0
  br i1 %16, label %21, label %17

17:                                               ; preds = %15
  %18 = tail call i32 %3(ptr noundef %0, ptr noundef %2, ptr noundef %4) #13
  %19 = icmp slt i32 %18, 0
  %20 = select i1 %19, ptr %0, ptr %2
  br label %21

21:                                               ; preds = %15, %9, %17, %11
  %22 = phi ptr [ %14, %11 ], [ %20, %17 ], [ %1, %9 ], [ %1, %15 ]
  ret ptr %22
}